; Function Attrs: cold nounwind optsize uwtable
define internal noundef i32 @svq1_decode_end(ptr noundef readonly captures(none) %0) #0 {
  %2 = getelementptr inbounds nuw i8, ptr %0, i64 32
  %3 = load ptr, ptr %2, align 8, !tbaa !4
  %4 = getelementptr inbounds nuw i8, ptr %3, i64 448
  tail call void @av_frame_free(ptr noundef nonnull %4) #9
  %5 = getelementptr inbounds nuw i8, ptr %3, i64 456
  tail call void @av_freep(ptr noundef nonnull %5) #9
  %6 = getelementptr inbounds nuw i8, ptr %3, i64 464
  store i32 0, ptr %6, align 8, !tbaa !82
  %7 = getelementptr inbounds nuw i8, ptr %3, i64 472
  tail call void @av_freep(ptr noundef nonnull %7) #9
  %8 = getelementptr inbounds nuw i8, ptr %3, i64 480
  store i32 0, ptr %8, align 8, !tbaa !83
  ret i32 0
}